target datalayout = "e-m:e-p270:32:32-p271:32:32-p272:64:64-i64:64-i128:128-f80:128-n8:16:32:64-S128"
target triple = "x86_64-pc-linux-gnu"

%union.pthread_mutex_t = type { %struct.__pthread_mutex_s }
%struct.__pthread_mutex_s = type { i32, i32, i32, i32, i32, i16, i16, %struct.__pthread_internal_list }
%struct.__pthread_internal_list = type { ptr, ptr }

@allowed_uid = internal global ptr null, align 8
@mc_path = internal global ptr null, align 8
@syscfg_path = internal global ptr null, align 8
@allowed_uid_cnt = internal global i32 0, align 4
@numa_cpu_bind = internal global ptr null, align 8
@ume_mutex = internal global %union.pthread_mutex_t zeroinitializer, align 8
@.str.40 = private unnamed_addr constant [29 x i8] c"%s: pthread_mutex_lock(): %m\00", align 1
@ume_thread = internal global i64 0, align 8
@.str.46 = private unnamed_addr constant [31 x i8] c"%s: pthread_mutex_unlock(): %m\00", align 1
@shutdown_time = internal global i64 0, align 8
@__func__.fini = private unnamed_addr constant [5 x i8] c"fini\00", align 1
@.str.47 = private unnamed_addr constant [23 x i8] c"%s: pthread_join(): %m\00", align 1
@mcdram_per_node = internal global ptr null, align 8
@knl_node_bitmap = internal global ptr null, align 8

; Function Attrs: nounwind uwtable
define dso_local i32 @fini() #0 {
  %1 = alloca i32, align 4
  %2 = alloca i32, align 4
  %3 = alloca i32, align 4
  %4 = call i64 @time(ptr noundef null) #9
  store i64 %4, ptr @shutdown_time, align 8
  br label %5

5:                                                ; preds = %0
  call void @llvm.lifetime.start.p0(i64 4, ptr %1) #9
  %6 = call i32 @pthread_mutex_lock(ptr noundef @ume_mutex) #9
  store i32 %6, ptr %1, align 4
  %7 = load i32, ptr %1, align 4
  %8 = icmp ne i32 %7, 0
  br i1 %8, label %9, label %12

9:                                                ; preds = %5
  %10 = load i32, ptr %1, align 4
  %11 = call ptr @__errno_location() #11
  store i32 %10, ptr %11, align 4
  call void (ptr, ...) @fatal_abort(ptr noundef @.str.40, ptr noundef @__func__.fini) #10
  unreachable

12:                                               ; preds = %5
  call void @llvm.lifetime.end.p0(i64 4, ptr %1) #9
  br label %13

13:                                               ; preds = %12
  br label %14

14:                                               ; preds = %13
  call void @llvm.lifetime.start.p0(i64 4, ptr %2) #9
  store i32 0, ptr %2, align 4
  %15 = load i64, ptr @ume_thread, align 8
  %16 = icmp ne i64 %15, 0
  br i1 %16, label %17, label %20

17:                                               ; preds = %14
  %18 = load i64, ptr @ume_thread, align 8
  %19 = call i32 @pthread_join(i64 noundef %18, ptr noundef null)
  store i32 %19, ptr %2, align 4
  store i64 0, ptr @ume_thread, align 8
  br label %20

20:                                               ; preds = %17, %14
  %21 = load i32, ptr %2, align 4
  %22 = icmp ne i32 %21, 0
  br i1 %22, label %23, label %27

23:                                               ; preds = %20
  %24 = load i32, ptr %2, align 4
  %25 = call ptr @__errno_location() #11
  store i32 %24, ptr %25, align 4
  %26 = call i32 (ptr, ...) @error(ptr noundef @.str.47, ptr noundef @__func__.fini)
  br label %27

27:                                               ; preds = %23, %20
  call void @llvm.lifetime.end.p0(i64 4, ptr %2) #9
  br label %28

28:                                               ; preds = %27
  br label %29

29:                                               ; preds = %28
  call void @llvm.lifetime.start.p0(i64 4, ptr %3) #9
  %30 = call i32 @pthread_mutex_unlock(ptr noundef @ume_mutex) #9
  store i32 %30, ptr %3, align 4
  %31 = load i32, ptr %3, align 4
  %32 = icmp ne i32 %31, 0
  br i1 %32, label %33, label %36

33:                                               ; preds = %29
  %34 = load i32, ptr %3, align 4
  %35 = call ptr @__errno_location() #11
  store i32 %34, ptr %35, align 4
  call void (ptr, ...) @fatal_abort(ptr noundef @.str.46, ptr noundef @__func__.fini) #10
  unreachable

36:                                               ; preds = %29
  call void @llvm.lifetime.end.p0(i64 4, ptr %3) #9
  br label %37

37:                                               ; preds = %36
  call void @slurm_xfree(ptr noundef @allowed_uid)
  store i32 0, ptr @allowed_uid_cnt, align 4
  call void @slurm_xfree(ptr noundef @mcdram_per_node)
  call void @slurm_xfree(ptr noundef @mc_path)
  call void @slurm_xfree(ptr noundef @numa_cpu_bind)
  call void @slurm_xfree(ptr noundef @syscfg_path)
  br label %38

38:                                               ; preds = %37
  %39 = load ptr, ptr @knl_node_bitmap, align 8
  %40 = icmp ne ptr %39, null
  br i1 %40, label %41, label %42

41:                                               ; preds = %38
  call void @slurm_bit_free(ptr noundef @knl_node_bitmap)
  br label %42

42:                                               ; preds = %41, %38
  store ptr null, ptr @knl_node_bitmap, align 8
  br label %43

43:                                               ; preds = %42
  ret i32 0
}