; Function Attrs: nounwind uwtable
define dso_local noundef i32 @fini() local_unnamed_addr #0 {
  %1 = tail call i64 @time(ptr noundef null) #14
  store i64 %1, ptr @shutdown_time, align 8
  %2 = tail call i32 @pthread_mutex_lock(ptr noundef nonnull @ume_mutex) #14
  %.not = icmp eq i32 %2, 0
  br i1 %.not, label %5, label %3

3:                                                ; preds = %0
  %4 = tail call ptr @__errno_location() #17
  store i32 %2, ptr %4, align 4
  tail call void (ptr, ...) @fatal_abort(ptr noundef nonnull @.str.40, ptr noundef nonnull @__func__.fini) #15
  unreachable

5:                                                ; preds = %0
  %6 = load i64, ptr @ume_thread, align 8
  %.not9 = icmp eq i64 %6, 0
  br i1 %.not9, label %.thread, label %7

7:                                                ; preds = %5
  %8 = tail call i32 @pthread_join(i64 noundef %6, ptr noundef null) #14
  store i64 0, ptr @ume_thread, align 8
  %.not10 = icmp eq i32 %8, 0
  br i1 %.not10, label %.thread, label %9

9:                                                ; preds = %7
  %10 = tail call ptr @__errno_location() #17
  store i32 %8, ptr %10, align 4
  %11 = tail call i32 (ptr, ...) @error(ptr noundef nonnull @.str.47, ptr noundef nonnull @__func__.fini) #14
  br label %.thread

.thread:                                          ; preds = %5, %9, %7
  %12 = tail call i32 @pthread_mutex_unlock(ptr noundef nonnull @ume_mutex) #14
  %.not11 = icmp eq i32 %12, 0
  br i1 %.not11, label %15, label %13

13:                                               ; preds = %.thread
  %14 = tail call ptr @__errno_location() #17
  store i32 %12, ptr %14, align 4
  tail call void (ptr, ...) @fatal_abort(ptr noundef nonnull @.str.46, ptr noundef nonnull @__func__.fini) #15
  unreachable

15:                                               ; preds = %.thread
  tail call void @slurm_xfree(ptr noundef nonnull @allowed_uid) #14
  store i32 0, ptr @allowed_uid_cnt, align 4
  tail call void @slurm_xfree(ptr noundef nonnull @mcdram_per_node) #14
  tail call void @slurm_xfree(ptr noundef nonnull @mc_path) #14
  tail call void @slurm_xfree(ptr noundef nonnull @numa_cpu_bind) #14
  tail call void @slurm_xfree(ptr noundef nonnull @syscfg_path) #14
  %16 = load ptr, ptr @knl_node_bitmap, align 8
  %.not12 = icmp eq ptr %16, null
  br i1 %.not12, label %18, label %17

17:                                               ; preds = %15
  tail call void @slurm_bit_free(ptr noundef nonnull @knl_node_bitmap) #14
  br label %18

18:                                               ; preds = %17, %15
  store ptr null, ptr @knl_node_bitmap, align 8
  ret i32 0
}